target datalayout = "e-m:e-p270:32:32-p271:32:32-p272:64:64-i64:64-i128:128-f80:128-n8:16:32:64-S128"
target triple = "x86_64-pc-linux-gnu"

%"class.std::__cxx11::basic_string" = type { %"struct.std::__cxx11::basic_string<char>::_Alloc_hider", i64, %union.anon }
%"struct.std::__cxx11::basic_string<char>::_Alloc_hider" = type { ptr }
%union.anon = type { i64, [8 x i8] }
%"class.llvm::SmallVector.138" = type <{ %"class.llvm::SmallVectorImpl.139", %"struct.llvm::SmallVectorStorage.143", i8 }>
%"class.llvm::SmallVectorImpl.139" = type { %"class.llvm::SmallVectorTemplateBase.140" }
%"class.llvm::SmallVectorTemplateBase.140" = type { %"class.llvm::SmallVectorTemplateCommon.141" }
%"class.llvm::SmallVectorTemplateCommon.141" = type { %"class.llvm::SmallVectorBase.142" }
%"class.llvm::SmallVectorBase.142" = type { ptr, i64, i64 }
%"struct.llvm::SmallVectorStorage.143" = type { [39 x i8] }
%"struct.(anonymous namespace)::SemaRecord" = type <{ %"class.std::__cxx11::basic_string", %"class.std::__cxx11::basic_string", i32, i32, i32, [4 x i8], %"class.llvm::SmallVector.138", %"class.llvm::SmallVector.138", %"class.llvm::SmallVector.138", i32, i16, [2 x i8] }>

; Function Attrs: mustprogress nounwind uwtable
define linkonce_odr hidden noundef ptr @_ZNK4llvm25SmallVectorTemplateCommonIN5clang5RISCV19PrototypeDescriptorEvE10getFirstElEv(ptr noundef nonnull align 8 dereferenceable(24) %0) #0 comdat align 2 {
  %2 = alloca ptr, align 8
  store ptr %0, ptr %2, align 8
  %3 = load ptr, ptr %2, align 8
  %4 = getelementptr inbounds i8, ptr %3, i64 24
  ret ptr %4
}

; Function Attrs: mustprogress nounwind uwtable
define linkonce_odr hidden void @_ZN4llvm25SmallVectorTemplateCommonIN5clang5RISCV19PrototypeDescriptorEvEC2Em(ptr noundef nonnull align 8 dereferenceable(24) %0, i64 noundef %1) unnamed_addr #0 comdat align 2 {
  %3 = alloca ptr, align 8
  %4 = alloca i64, align 8
  store ptr %0, ptr %3, align 8
  store i64 %1, ptr %4, align 8
  %5 = load ptr, ptr %3, align 8
  %6 = call noundef ptr @_ZNK4llvm25SmallVectorTemplateCommonIN5clang5RISCV19PrototypeDescriptorEvE10getFirstElEv(ptr noundef nonnull align 8 dereferenceable(24) %5)
  %7 = load i64, ptr %4, align 8
  call void @_ZN4llvm15SmallVectorBaseImEC2EPvm(ptr noundef nonnull align 8 dereferenceable(24) %5, ptr noundef %6, i64 noundef %7)
  ret void
}

; Function Attrs: mustprogress nounwind uwtable
define linkonce_odr hidden void @_ZN4llvm23SmallVectorTemplateBaseIN5clang5RISCV19PrototypeDescriptorELb1EEC2Em(ptr noundef nonnull align 8 dereferenceable(24) %0, i64 noundef %1) unnamed_addr #0 comdat align 2 {
  %3 = alloca ptr, align 8
  %4 = alloca i64, align 8
  store ptr %0, ptr %3, align 8
  store i64 %1, ptr %4, align 8
  %5 = load ptr, ptr %3, align 8
  %6 = load i64, ptr %4, align 8
  call void @_ZN4llvm25SmallVectorTemplateCommonIN5clang5RISCV19PrototypeDescriptorEvEC2Em(ptr noundef nonnull align 8 dereferenceable(24) %5, i64 noundef %6)
  ret void
}

; Function Attrs: mustprogress nounwind uwtable
define linkonce_odr hidden void @_ZN4llvm15SmallVectorImplIN5clang5RISCV19PrototypeDescriptorEEC2Ej(ptr noundef nonnull align 8 dereferenceable(24) %0, i32 noundef %1) unnamed_addr #0 comdat align 2 {
  %3 = alloca ptr, align 8
  %4 = alloca i32, align 4
  store ptr %0, ptr %3, align 8
  store i32 %1, ptr %4, align 4
  %5 = load ptr, ptr %3, align 8
  %6 = load i32, ptr %4, align 4
  %7 = zext i32 %6 to i64
  call void @_ZN4llvm23SmallVectorTemplateBaseIN5clang5RISCV19PrototypeDescriptorELb1EEC2Em(ptr noundef nonnull align 8 dereferenceable(24) %5, i64 noundef %7)
  ret void
}

; Function Attrs: mustprogress nounwind uwtable
define linkonce_odr hidden void @_ZN4llvm11SmallVectorIN5clang5RISCV19PrototypeDescriptorELj13EEC2ERKS4_(ptr noundef nonnull align 8 dereferenceable(63) %0, ptr noundef nonnull align 8 dereferenceable(63) %1) unnamed_addr #0 comdat align 2 {
  %3 = alloca ptr, align 8
  %4 = alloca ptr, align 8
  store ptr %0, ptr %3, align 8
  store ptr %1, ptr %4, align 8
  %5 = load ptr, ptr %3, align 8
  call void @_ZN4llvm15SmallVectorImplIN5clang5RISCV19PrototypeDescriptorEEC2Ej(ptr noundef nonnull align 8 dereferenceable(24) %5, i32 noundef 13)
  %6 = load ptr, ptr %4, align 8
  %7 = call noundef zeroext i1 @_ZNK4llvm15SmallVectorBaseImE5emptyEv(ptr noundef nonnull align 8 dereferenceable(24) %6)
  br i1 %7, label %11, label %8

8:                                                ; preds = %2
  %9 = load ptr, ptr %4, align 8
  %10 = call noundef nonnull align 8 dereferenceable(24) ptr @_ZN4llvm15SmallVectorImplIN5clang5RISCV19PrototypeDescriptorEEaSERKS4_(ptr noundef nonnull align 8 dereferenceable(24) %5, ptr noundef nonnull align 8 dereferenceable(24) %9)
  br label %11

11:                                               ; preds = %8, %2
  ret void
}

; Function Attrs: mustprogress nounwind uwtable
define internal void @_ZN12_GLOBAL__N_110SemaRecordC2ERKS0_(ptr noundef nonnull align 8 dereferenceable(278) %0, ptr noundef nonnull align 8 dereferenceable(278) %1) unnamed_addr #0 align 2 {
  %3 = alloca ptr, align 8
  %4 = alloca ptr, align 8
  store ptr %0, ptr %3, align 8
  store ptr %1, ptr %4, align 8
  %5 = load ptr, ptr %3, align 8
  %6 = getelementptr inbounds nuw %"struct.(anonymous namespace)::SemaRecord", ptr %5, i32 0, i32 0
  %7 = load ptr, ptr %4, align 8
  %8 = getelementptr inbounds nuw %"struct.(anonymous namespace)::SemaRecord", ptr %7, i32 0, i32 0
  call void @_ZNSt7__cxx1112basic_stringIcSt11char_traitsIcESaIcEEC1ERKS4_(ptr noundef nonnull align 8 dereferenceable(32) %6, ptr noundef nonnull align 8 dereferenceable(32) %8)
  %9 = getelementptr inbounds nuw %"struct.(anonymous namespace)::SemaRecord", ptr %5, i32 0, i32 1
  %10 = load ptr, ptr %4, align 8
  %11 = getelementptr inbounds nuw %"struct.(anonymous namespace)::SemaRecord", ptr %10, i32 0, i32 1
  call void @_ZNSt7__cxx1112basic_stringIcSt11char_traitsIcESaIcEEC1ERKS4_(ptr noundef nonnull align 8 dereferenceable(32) %9, ptr noundef nonnull align 8 dereferenceable(32) %11)
  %12 = getelementptr inbounds nuw %"struct.(anonymous namespace)::SemaRecord", ptr %5, i32 0, i32 2
  %13 = load ptr, ptr %4, align 8
  %14 = getelementptr inbounds nuw %"struct.(anonymous namespace)::SemaRecord", ptr %13, i32 0, i32 2
  call void @llvm.memcpy.p0.p0.i64(ptr align 8 %12, ptr align 8 %14, i64 12, i1 false)
  %15 = getelementptr inbounds nuw %"struct.(anonymous namespace)::SemaRecord", ptr %5, i32 0, i32 6
  %16 = load ptr, ptr %4, align 8
  %17 = getelementptr inbounds nuw %"struct.(anonymous namespace)::SemaRecord", ptr %16, i32 0, i32 6
  call void @_ZN4llvm11SmallVectorIN5clang5RISCV19PrototypeDescriptorELj13EEC2ERKS4_(ptr noundef nonnull align 8 dereferenceable(63) %15, ptr noundef nonnull align 8 dereferenceable(63) %17)
  %18 = getelementptr inbounds nuw %"struct.(anonymous namespace)::SemaRecord", ptr %5, i32 0, i32 7
  %19 = load ptr, ptr %4, align 8
  %20 = getelementptr inbounds nuw %"struct.(anonymous namespace)::SemaRecord", ptr %19, i32 0, i32 7
  call void @_ZN4llvm11SmallVectorIN5clang5RISCV19PrototypeDescriptorELj13EEC2ERKS4_(ptr noundef nonnull align 8 dereferenceable(63) %18, ptr noundef nonnull align 8 dereferenceable(63) %20)
  %21 = getelementptr inbounds nuw %"struct.(anonymous namespace)::SemaRecord", ptr %5, i32 0, i32 8
  %22 = load ptr, ptr %4, align 8
  %23 = getelementptr inbounds nuw %"struct.(anonymous namespace)::SemaRecord", ptr %22, i32 0, i32 8
  call void @_ZN4llvm11SmallVectorIN5clang5RISCV19PrototypeDescriptorELj13EEC2ERKS4_(ptr noundef nonnull align 8 dereferenceable(63) %21, ptr noundef nonnull align 8 dereferenceable(63) %23)
  %24 = getelementptr inbounds nuw %"struct.(anonymous namespace)::SemaRecord", ptr %5, i32 0, i32 9
  %25 = load ptr, ptr %4, align 8
  %26 = getelementptr inbounds nuw %"struct.(anonymous namespace)::SemaRecord", ptr %25, i32 0, i32 9
  call void @llvm.memcpy.p0.p0.i64(ptr align 8 %24, ptr align 8 %26, i64 6, i1 false)
  ret void
}