; Function Attrs: mustprogress nounwind uwtable
define internal fastcc void @_ZN12_GLOBAL__N_110SemaRecordC2ERKS0_(ptr noundef nonnull align 8 dereferenceable(278) %0, ptr noundef nonnull align 8 dereferenceable(278) %1) unnamed_addr #0 align 2 {
  tail call void @_ZNSt7__cxx1112basic_stringIcSt11char_traitsIcESaIcEEC1ERKS4_(ptr noundef nonnull align 8 dereferenceable(32) %0, ptr noundef nonnull align 8 dereferenceable(32) %1) #18
  %3 = getelementptr inbounds nuw i8, ptr %0, i64 32
  %4 = getelementptr inbounds nuw i8, ptr %1, i64 32
  tail call void @_ZNSt7__cxx1112basic_stringIcSt11char_traitsIcESaIcEEC1ERKS4_(ptr noundef nonnull align 8 dereferenceable(32) %3, ptr noundef nonnull align 8 dereferenceable(32) %4) #18
  %5 = getelementptr inbounds nuw i8, ptr %0, i64 64
  %6 = getelementptr inbounds nuw i8, ptr %1, i64 64
  tail call void @llvm.memcpy.p0.p0.i64(ptr noundef nonnull align 8 dereferenceable(12) %5, ptr noundef nonnull align 8 dereferenceable(12) %6, i64 12, i1 false)
  %7 = getelementptr inbounds nuw i8, ptr %0, i64 80
  %8 = getelementptr inbounds nuw i8, ptr %1, i64 80
  %9 = getelementptr inbounds nuw i8, ptr %0, i64 104
  tail call void @_ZN4llvm15SmallVectorBaseImEC2EPvm(ptr noundef nonnull align 8 dereferenceable(63) %7, ptr noundef nonnull %9, i64 noundef 13) #18
  %10 = tail call noundef zeroext i1 @_ZNK4llvm15SmallVectorBaseImE5emptyEv(ptr noundef nonnull align 8 dereferenceable(63) %8) #18
  br i1 %10, label %_ZN4llvm11SmallVectorIN5clang5RISCV19PrototypeDescriptorELj13EEC2ERKS4_.exit, label %11

11:                                               ; preds = %2
  %12 = tail call noundef nonnull align 8 dereferenceable(24) ptr @_ZN4llvm15SmallVectorImplIN5clang5RISCV19PrototypeDescriptorEEaSERKS4_(ptr noundef nonnull align 8 dereferenceable(63) %7, ptr noundef nonnull align 8 dereferenceable(63) %8)
  br label %_ZN4llvm11SmallVectorIN5clang5RISCV19PrototypeDescriptorELj13EEC2ERKS4_.exit

_ZN4llvm11SmallVectorIN5clang5RISCV19PrototypeDescriptorELj13EEC2ERKS4_.exit: ; preds = %2, %11
  %13 = getelementptr inbounds nuw i8, ptr %0, i64 144
  %14 = getelementptr inbounds nuw i8, ptr %1, i64 144
  %15 = getelementptr inbounds nuw i8, ptr %0, i64 168
  tail call void @_ZN4llvm15SmallVectorBaseImEC2EPvm(ptr noundef nonnull align 8 dereferenceable(63) %13, ptr noundef nonnull %15, i64 noundef 13) #18
  %16 = tail call noundef zeroext i1 @_ZNK4llvm15SmallVectorBaseImE5emptyEv(ptr noundef nonnull align 8 dereferenceable(63) %14) #18
  br i1 %16, label %_ZN4llvm11SmallVectorIN5clang5RISCV19PrototypeDescriptorELj13EEC2ERKS4_.exit8, label %17

17:                                               ; preds = %_ZN4llvm11SmallVectorIN5clang5RISCV19PrototypeDescriptorELj13EEC2ERKS4_.exit
  %18 = tail call noundef nonnull align 8 dereferenceable(24) ptr @_ZN4llvm15SmallVectorImplIN5clang5RISCV19PrototypeDescriptorEEaSERKS4_(ptr noundef nonnull align 8 dereferenceable(63) %13, ptr noundef nonnull align 8 dereferenceable(63) %14)
  br label %_ZN4llvm11SmallVectorIN5clang5RISCV19PrototypeDescriptorELj13EEC2ERKS4_.exit8

_ZN4llvm11SmallVectorIN5clang5RISCV19PrototypeDescriptorELj13EEC2ERKS4_.exit8: ; preds = %_ZN4llvm11SmallVectorIN5clang5RISCV19PrototypeDescriptorELj13EEC2ERKS4_.exit, %17
  %19 = getelementptr inbounds nuw i8, ptr %0, i64 208
  %20 = getelementptr inbounds nuw i8, ptr %1, i64 208
  %21 = getelementptr inbounds nuw i8, ptr %0, i64 232
  tail call void @_ZN4llvm15SmallVectorBaseImEC2EPvm(ptr noundef nonnull align 8 dereferenceable(63) %19, ptr noundef nonnull %21, i64 noundef 13) #18
  %22 = tail call noundef zeroext i1 @_ZNK4llvm15SmallVectorBaseImE5emptyEv(ptr noundef nonnull align 8 dereferenceable(63) %20) #18
  br i1 %22, label %_ZN4llvm11SmallVectorIN5clang5RISCV19PrototypeDescriptorELj13EEC2ERKS4_.exit9, label %23

23:                                               ; preds = %_ZN4llvm11SmallVectorIN5clang5RISCV19PrototypeDescriptorELj13EEC2ERKS4_.exit8
  %24 = tail call noundef nonnull align 8 dereferenceable(24) ptr @_ZN4llvm15SmallVectorImplIN5clang5RISCV19PrototypeDescriptorEEaSERKS4_(ptr noundef nonnull align 8 dereferenceable(63) %19, ptr noundef nonnull align 8 dereferenceable(63) %20)
  br label %_ZN4llvm11SmallVectorIN5clang5RISCV19PrototypeDescriptorELj13EEC2ERKS4_.exit9

_ZN4llvm11SmallVectorIN5clang5RISCV19PrototypeDescriptorELj13EEC2ERKS4_.exit9: ; preds = %_ZN4llvm11SmallVectorIN5clang5RISCV19PrototypeDescriptorELj13EEC2ERKS4_.exit8, %23
  %25 = getelementptr inbounds nuw i8, ptr %0, i64 272
  %26 = getelementptr inbounds nuw i8, ptr %1, i64 272
  tail call void @llvm.memcpy.p0.p0.i64(ptr noundef nonnull align 8 dereferenceable(6) %25, ptr noundef nonnull align 8 dereferenceable(6) %26, i64 6, i1 false)
  ret void
}